target datalayout = "e-m:e-p270:32:32-p271:32:32-p272:64:64-i64:64-i128:128-f80:128-n8:16:32:64-S128"
target triple = "x86_64-pc-linux-gnu"

%struct.ARKodeMRIStepMemRec = type { ptr, ptr, i32, i32, i32, i32, i32, ptr, ptr, i32, i32, i32, ptr, i32, i32, i32, i32, i32, ptr, ptr, ptr, ptr, ptr, ptr, ptr, i32, ptr, i32, ptr, double, double, double, double, i32, double, double, double, double, double, double, i32, i64, i32, i32, i32, ptr, ptr, ptr, ptr, ptr, ptr, ptr, ptr, ptr, double, double, double, i64, i64, i64, i64, i64, i64, i32, i32, i32, double, double, ptr, i32, ptr, ptr }
%struct.ARKodeMemRec = type { ptr, double, ptr, i32, i32, double, double, ptr, i32, double, ptr, i32, i32, ptr, ptr, i32, ptr, ptr, i32, ptr, ptr, ptr, ptr, ptr, ptr, ptr, ptr, ptr, ptr, ptr, ptr, ptr, ptr, ptr, i32, ptr, ptr, i32, ptr, i32, ptr, ptr, ptr, ptr, ptr, ptr, ptr, ptr, ptr, ptr, ptr, ptr, ptr, ptr, ptr, ptr, ptr, ptr, ptr, ptr, ptr, ptr, ptr, ptr, ptr, ptr, i32, ptr, ptr, ptr, ptr, ptr, ptr, ptr, i32, ptr, ptr, ptr, i32, ptr, ptr, ptr, ptr, ptr, ptr, ptr, i32, i32, i32, i32, double, double, double, double, double, double, double, double, double, double, i32, ptr, i64, i32, i32, i32, i32, i64, i64, i32, i64, i64, i64, i64, i64, i64, i64, double, double, double, double, double, i32, double, double, i32, i32, i32, i32, i32, i32, i32, i32, ptr, i32, ptr, ptr, ptr, ptr, i32, i32, i32 }

@__func__.mriStep_NlsLSolve = private unnamed_addr constant [18 x i8] c"mriStep_NlsLSolve\00", align 1

; Function Attrs: nounwind uwtable
define i32 @mriStep_NlsLSolve(ptr noundef %0, ptr noundef %1) #0 {
  %3 = alloca i32, align 4
  %4 = alloca ptr, align 8
  %5 = alloca ptr, align 8
  %6 = alloca ptr, align 8
  %7 = alloca ptr, align 8
  %8 = alloca i32, align 4
  %9 = alloca i32, align 4
  %10 = alloca i32, align 4
  store ptr %0, ptr %4, align 8, !tbaa !37
  store ptr %1, ptr %5, align 8, !tbaa !38
  call void @llvm.lifetime.start.p0(i64 8, ptr %6) #4
  call void @llvm.lifetime.start.p0(i64 8, ptr %7) #4
  call void @llvm.lifetime.start.p0(i64 4, ptr %8) #4
  call void @llvm.lifetime.start.p0(i64 4, ptr %9) #4
  %11 = load ptr, ptr %5, align 8, !tbaa !38
  %12 = call i32 @mriStep_AccessARKODEStepMem(ptr noundef %11, ptr noundef @__func__.mriStep_NlsLSolve, ptr noundef %6, ptr noundef %7)
  store i32 %12, ptr %8, align 4, !tbaa !10
  %13 = load i32, ptr %8, align 4, !tbaa !10
  %14 = icmp ne i32 %13, 0
  br i1 %14, label %15, label %17

15:                                               ; preds = %2
  %16 = load i32, ptr %8, align 4, !tbaa !10
  store i32 %16, ptr %3, align 4
  store i32 1, ptr %10, align 4
  br label %65

17:                                               ; preds = %2
  %18 = load ptr, ptr %7, align 8, !tbaa !20
  %19 = getelementptr inbounds nuw %struct.ARKodeMRIStepMemRec, ptr %18, i32 0, i32 26
  %20 = load ptr, ptr %19, align 8, !tbaa !22
  %21 = call i32 @SUNNonlinSolGetCurIter(ptr noundef %20, ptr noundef %9)
  store i32 %21, ptr %8, align 4, !tbaa !10
  %22 = load i32, ptr %8, align 4, !tbaa !10
  %23 = icmp ne i32 %22, 0
  br i1 %23, label %24, label %25

24:                                               ; preds = %17
  store i32 -32, ptr %3, align 4
  store i32 1, ptr %10, align 4
  br label %65

25:                                               ; preds = %17
  %26 = load ptr, ptr %7, align 8, !tbaa !20
  %27 = getelementptr inbounds nuw %struct.ARKodeMRIStepMemRec, ptr %26, i32 0, i32 48
  %28 = load ptr, ptr %27, align 8, !tbaa !66
  %29 = load ptr, ptr %6, align 8, !tbaa !3
  %30 = load ptr, ptr %4, align 8, !tbaa !37
  %31 = load ptr, ptr %6, align 8, !tbaa !3
  %32 = getelementptr inbounds nuw %struct.ARKodeMemRec, ptr %31, i32 0, i32 98
  %33 = load double, ptr %32, align 8, !tbaa !46
  %34 = load ptr, ptr %6, align 8, !tbaa !3
  %35 = getelementptr inbounds nuw %struct.ARKodeMemRec, ptr %34, i32 0, i32 75
  %36 = load ptr, ptr %35, align 8, !tbaa !40
  %37 = load ptr, ptr %7, align 8, !tbaa !20
  %38 = getelementptr inbounds nuw %struct.ARKodeMRIStepMemRec, ptr %37, i32 0, i32 8
  %39 = load ptr, ptr %38, align 8, !tbaa !47
  %40 = load ptr, ptr %7, align 8, !tbaa !20
  %41 = getelementptr inbounds nuw %struct.ARKodeMRIStepMemRec, ptr %40, i32 0, i32 18
  %42 = load ptr, ptr %41, align 8, !tbaa !48
  %43 = load ptr, ptr %7, align 8, !tbaa !20
  %44 = getelementptr inbounds nuw %struct.ARKodeMRIStepMemRec, ptr %43, i32 0, i32 25
  %45 = load i32, ptr %44, align 8, !tbaa !49
  %46 = sext i32 %45 to i64
  %47 = getelementptr inbounds i32, ptr %42, i64 %46
  %48 = load i32, ptr %47, align 4, !tbaa !10
  %49 = sext i32 %48 to i64
  %50 = getelementptr inbounds ptr, ptr %39, i64 %49
  %51 = load ptr, ptr %50, align 8, !tbaa !37
  %52 = load ptr, ptr %7, align 8, !tbaa !20
  %53 = getelementptr inbounds nuw %struct.ARKodeMRIStepMemRec, ptr %52, i32 0, i32 38
  %54 = load double, ptr %53, align 8, !tbaa !79
  %55 = load i32, ptr %9, align 4, !tbaa !10
  %56 = call i32 %28(ptr noundef %29, ptr noundef %30, double noundef %33, ptr noundef %36, ptr noundef %51, double noundef %54, i32 noundef %55)
  store i32 %56, ptr %8, align 4, !tbaa !10
  %57 = load i32, ptr %8, align 4, !tbaa !10
  %58 = icmp slt i32 %57, 0
  br i1 %58, label %59, label %60

59:                                               ; preds = %25
  store i32 -7, ptr %3, align 4
  store i32 1, ptr %10, align 4
  br label %65

60:                                               ; preds = %25
  %61 = load i32, ptr %8, align 4, !tbaa !10
  %62 = icmp sgt i32 %61, 0
  br i1 %62, label %63, label %64

63:                                               ; preds = %60
  store i32 4, ptr %3, align 4
  store i32 1, ptr %10, align 4
  br label %65

64:                                               ; preds = %60
  store i32 0, ptr %3, align 4
  store i32 1, ptr %10, align 4
  br label %65

65:                                               ; preds = %64, %63, %59, %24, %15
  call void @llvm.lifetime.end.p0(i64 4, ptr %9) #4
  call void @llvm.lifetime.end.p0(i64 4, ptr %8) #4
  call void @llvm.lifetime.end.p0(i64 8, ptr %7) #4
  call void @llvm.lifetime.end.p0(i64 8, ptr %6) #4
  %66 = load i32, ptr %3, align 4
  ret i32 %66
}