; Function Attrs: nounwind uwtable
define i32 @mriStep_NlsLSolve(ptr noundef %0, ptr noundef %1) #0 {
  %3 = alloca ptr, align 8
  %4 = alloca ptr, align 8
  %5 = alloca i32, align 4
  call void @llvm.lifetime.start.p0(i64 8, ptr nonnull %3) #5
  call void @llvm.lifetime.start.p0(i64 8, ptr nonnull %4) #5
  call void @llvm.lifetime.start.p0(i64 4, ptr nonnull %5) #5
  %6 = call i32 @mriStep_AccessARKODEStepMem(ptr noundef %1, ptr noundef nonnull @__func__.mriStep_NlsLSolve, ptr noundef nonnull %3, ptr noundef nonnull %4) #5
  %.not = icmp eq i32 %6, 0
  br i1 %.not, label %7, label %39

7:                                                ; preds = %2
  %8 = load ptr, ptr %4, align 8, !tbaa !14
  %9 = getelementptr inbounds nuw i8, ptr %8, i64 168
  %10 = load ptr, ptr %9, align 8, !tbaa !16
  %11 = call i32 @SUNNonlinSolGetCurIter(ptr noundef %10, ptr noundef nonnull %5) #5
  %.not9 = icmp eq i32 %11, 0
  br i1 %.not9, label %12, label %39

12:                                               ; preds = %7
  %13 = load ptr, ptr %4, align 8, !tbaa !14
  %14 = getelementptr inbounds nuw i8, ptr %13, i64 336
  %15 = load ptr, ptr %14, align 8, !tbaa !61
  %16 = load ptr, ptr %3, align 8, !tbaa !34
  %17 = getelementptr inbounds nuw i8, ptr %16, i64 752
  %18 = load double, ptr %17, align 8, !tbaa !42
  %19 = getelementptr inbounds nuw i8, ptr %16, i64 584
  %20 = load ptr, ptr %19, align 8, !tbaa !36
  %21 = getelementptr inbounds nuw i8, ptr %13, i64 48
  %22 = load ptr, ptr %21, align 8, !tbaa !43
  %23 = getelementptr inbounds nuw i8, ptr %13, i64 104
  %24 = load ptr, ptr %23, align 8, !tbaa !44
  %25 = getelementptr inbounds nuw i8, ptr %13, i64 160
  %26 = load i32, ptr %25, align 8, !tbaa !45
  %27 = sext i32 %26 to i64
  %28 = getelementptr inbounds i32, ptr %24, i64 %27
  %29 = load i32, ptr %28, align 4, !tbaa !46
  %30 = sext i32 %29 to i64
  %31 = getelementptr inbounds ptr, ptr %22, i64 %30
  %32 = load ptr, ptr %31, align 8, !tbaa !47
  %33 = getelementptr inbounds nuw i8, ptr %13, i64 264
  %34 = load double, ptr %33, align 8, !tbaa !73
  %35 = load i32, ptr %5, align 4, !tbaa !46
  %36 = call i32 %15(ptr noundef %16, ptr noundef %0, double noundef %18, ptr noundef %20, ptr noundef %32, double noundef %34, i32 noundef %35) #5
  %37 = icmp slt i32 %36, 0
  br i1 %37, label %39, label %38

38:                                               ; preds = %12
  %.not10 = icmp eq i32 %36, 0
  %. = select i1 %.not10, i32 0, i32 4
  br label %39

39:                                               ; preds = %38, %12, %7, %2
  %.0 = phi i32 [ %6, %2 ], [ -32, %7 ], [ -7, %12 ], [ %., %38 ]
  call void @llvm.lifetime.end.p0(i64 4, ptr nonnull %5) #5
  call void @llvm.lifetime.end.p0(i64 8, ptr nonnull %4) #5
  call void @llvm.lifetime.end.p0(i64 8, ptr nonnull %3) #5
  ret i32 %.0
}